target datalayout = "e-m:e-p270:32:32-p271:32:32-p272:64:64-i64:64-i128:128-f80:128-n8:16:32:64-S128"
target triple = "x86_64-unknown-linux-gnu"

%class.b3CpuNarrowPhase = type <{ ptr, ptr, i32, i32, i32, [4 x i8] }>
%struct.b3CpuNarrowPhaseInternalData = type { %class.b3AlignedObjectArray, %class.b3AlignedObjectArray.0, %class.b3AlignedObjectArray.4, %struct.b3Config, %class.b3AlignedObjectArray.8, %class.b3AlignedObjectArray.12, %class.b3AlignedObjectArray.12, %class.b3AlignedObjectArray.16, %class.b3AlignedObjectArray.20, %class.b3AlignedObjectArray.24, i32, [4 x i8] }
%class.b3AlignedObjectArray = type <{ %class.b3AlignedAllocator, [3 x i8], i32, i32, [4 x i8], ptr, i8, [7 x i8] }>
%class.b3AlignedAllocator = type { i8 }
%class.b3AlignedObjectArray.0 = type <{ %class.b3AlignedAllocator.1, [3 x i8], i32, i32, [4 x i8], ptr, i8, [7 x i8] }>
%class.b3AlignedAllocator.1 = type { i8 }
%class.b3AlignedObjectArray.4 = type <{ %class.b3AlignedAllocator.5, [3 x i8], i32, i32, [4 x i8], ptr, i8, [7 x i8] }>
%class.b3AlignedAllocator.5 = type { i8 }
%struct.b3Config = type { i32, i32, i32, i32, i32, i32, i32, i32, i32, i32, i32, i32 }
%class.b3AlignedObjectArray.8 = type <{ %class.b3AlignedAllocator.9, [3 x i8], i32, i32, [4 x i8], ptr, i8, [7 x i8] }>
%class.b3AlignedAllocator.9 = type { i8 }
%class.b3AlignedObjectArray.12 = type <{ %class.b3AlignedAllocator.13, [3 x i8], i32, i32, [4 x i8], ptr, i8, [7 x i8] }>
%class.b3AlignedAllocator.13 = type { i8 }
%class.b3AlignedObjectArray.16 = type <{ %class.b3AlignedAllocator.17, [3 x i8], i32, i32, [4 x i8], ptr, i8, [7 x i8] }>
%class.b3AlignedAllocator.17 = type { i8 }
%class.b3AlignedObjectArray.20 = type <{ %class.b3AlignedAllocator.21, [3 x i8], i32, i32, [4 x i8], ptr, i8, [7 x i8] }>
%class.b3AlignedAllocator.21 = type { i8 }
%class.b3AlignedObjectArray.24 = type <{ %class.b3AlignedAllocator.25, [3 x i8], i32, i32, [4 x i8], ptr, i8, [7 x i8] }>
%class.b3AlignedAllocator.25 = type { i8 }
%struct.b3Aabb = type { %union.anon.48, %union.anon.49 }
%union.anon.48 = type { [4 x float] }
%union.anon.49 = type { [4 x float] }

; Function Attrs: mustprogress nounwind uwtable
define linkonce_odr dso_local noundef nonnull align 16 dereferenceable(32) ptr @_ZN20b3AlignedObjectArrayI6b3AabbEixEi(ptr noundef nonnull align 8 dereferenceable(25) %this, i32 noundef %n) #0 comdat align 2 {
entry:
  %this.addr = alloca ptr, align 8
  %n.addr = alloca i32, align 4
  store ptr %this, ptr %this.addr, align 8
  store i32 %n, ptr %n.addr, align 4
  %this1 = load ptr, ptr %this.addr, align 8
  %m_data = getelementptr inbounds %class.b3AlignedObjectArray, ptr %this1, i32 0, i32 5
  %0 = load ptr, ptr %m_data, align 8
  %1 = load i32, ptr %n.addr, align 4
  %idxprom = sext i32 %1 to i64
  %arrayidx = getelementptr inbounds %struct.b3Aabb, ptr %0, i64 %idxprom
  ret ptr %arrayidx
}

; Function Attrs: mustprogress uwtable
define dso_local noundef nonnull align 16 dereferenceable(32) ptr @_ZNK16b3CpuNarrowPhase17getLocalSpaceAabbEi(ptr noundef nonnull align 8 dereferenceable(28) %this, i32 noundef %collidableIndex) #1 align 2 {
entry:
  %this.addr = alloca ptr, align 8
  %collidableIndex.addr = alloca i32, align 4
  store ptr %this, ptr %this.addr, align 8
  store i32 %collidableIndex, ptr %collidableIndex.addr, align 4
  %this1 = load ptr, ptr %this.addr, align 8
  %m_data = getelementptr inbounds %class.b3CpuNarrowPhase, ptr %this1, i32 0, i32 1
  %0 = load ptr, ptr %m_data, align 8
  %m_localShapeAABBCPU = getelementptr inbounds %struct.b3CpuNarrowPhaseInternalData, ptr %0, i32 0, i32 0
  %1 = load i32, ptr %collidableIndex.addr, align 4
  %call = call noundef nonnull align 16 dereferenceable(32) ptr @_ZN20b3AlignedObjectArrayI6b3AabbEixEi(ptr noundef nonnull align 8 dereferenceable(25) %m_localShapeAABBCPU, i32 noundef %1)
  ret ptr %call
}